target datalayout = "e-m:e-p270:32:32-p271:32:32-p272:64:64-i64:64-i128:128-f80:128-n8:16:32:64-S128"
target triple = "x86_64-pc-linux-gnu"

%class.ref_vector = type { %class.ref_vector_core }
%class.ref_vector_core = type { %class.ref_manager_wrapper, %class.ptr_vector.30 }
%class.ref_manager_wrapper = type { ptr }
%class.ptr_vector.30 = type { %class.vector.31 }
%class.vector.31 = type { ptr }
%class.svector.17 = type { %class.vector.18 }
%class.vector.18 = type { ptr }
%class.seq_util = type { ptr, ptr, ptr, i32, [4 x i8], %"class.seq_util::str", %"class.seq_util::rex" }
%"class.seq_util::str" = type <{ ptr, ptr, i32, [4 x i8] }>
%"class.seq_util::rex" = type { ptr, ptr, i32, %class.vector.43, %class.ref_vector, %"struct.seq_util::rex::info", %"struct.seq_util::rex::info" }
%class.vector.43 = type { ptr }
%"struct.seq_util::rex::info" = type { i32, i8, i32, i32 }
%class.re2automaton = type { ptr, [8 x i8], %class.seq_util, %class.scoped_ptr, %class.scoped_ptr.44, %class.scoped_ptr.45 }
%class.scoped_ptr = type { ptr }
%class.scoped_ptr.44 = type { ptr }
%class.scoped_ptr.45 = type { ptr }
%class.bool_rewriter = type { ptr, i8, i8, i8, i8, i8, i8, i32, i8, i32, i32, i8, %class.ptr_vector.30, %class.ptr_vector.30, %class.svector.17, %class.svector.17 }
%class.seq_rewriter = type <{ %class.seq_util, %class.arith_util, %class.bool_rewriter, %class.re2automaton, %"class.seq_rewriter::op_cache", %class.ref_vector, %class.ref_vector, %class.ref_vector, i8, [7 x i8] }>
%class.arith_util = type { ptr, ptr }
%"class.seq_rewriter::op_cache" = type { i32, %class.ref_vector, %class.hashtable }
%class.hashtable = type { %class.core_hashtable.base.50, [4 x i8] }
%class.core_hashtable.base.50 = type <{ ptr, i32, i32, i32 }>
%class.anon.84 = type { ptr }

; Function Attrs: mustprogress nounwind uwtable
define linkonce_odr hidden noundef nonnull align 8 dereferenceable(136) ptr @_ZN12seq_rewriter1uEv(ptr noundef nonnull align 8 dereferenceable(497) %0) #6 comdat align 2 {
  %2 = alloca ptr, align 8
  store ptr %0, ptr %2, align 8, !tbaa !259
  %3 = load ptr, ptr %2, align 8
  %4 = getelementptr inbounds nuw %class.seq_rewriter, ptr %3, i32 0, i32 0
  ret ptr %4
}

; Function Attrs: mustprogress uwtable
define linkonce_odr hidden noundef ptr @_ZN8seq_util3rex8mk_unionEP4exprS2_(ptr noundef nonnull align 8 dereferenceable(80) %0, ptr noundef %1, ptr noundef %2) #4 comdat align 2 {
  %4 = alloca ptr, align 8
  %5 = alloca ptr, align 8
  %6 = alloca ptr, align 8
  store ptr %0, ptr %4, align 8, !tbaa !238
  store ptr %1, ptr %5, align 8, !tbaa !8
  store ptr %2, ptr %6, align 8, !tbaa !8
  %7 = load ptr, ptr %4, align 8
  %8 = getelementptr inbounds nuw %"class.seq_util::rex", ptr %7, i32 0, i32 1
  %9 = load ptr, ptr %8, align 8, !tbaa !296
  %10 = getelementptr inbounds nuw %"class.seq_util::rex", ptr %7, i32 0, i32 2
  %11 = load i32, ptr %10, align 8, !tbaa !245
  %12 = load ptr, ptr %5, align 8, !tbaa !8
  %13 = load ptr, ptr %6, align 8, !tbaa !8
  %14 = call noundef ptr @_ZN11ast_manager6mk_appEiiP4exprS1_(ptr noundef nonnull align 8 dereferenceable(976) %9, i32 noundef %11, i32 noundef 29, ptr noundef %12, ptr noundef %13)
  ret ptr %14
}

; Function Attrs: mustprogress uwtable
define linkonce_odr hidden noundef nonnull align 8 dereferenceable(80) ptr @_ZN12seq_rewriter2reEv(ptr noundef nonnull align 8 dereferenceable(497) %0) #4 comdat align 2 {
  %2 = alloca ptr, align 8
  store ptr %0, ptr %2, align 8, !tbaa !259
  %3 = load ptr, ptr %2, align 8
  %4 = call noundef nonnull align 8 dereferenceable(136) ptr @_ZN12seq_rewriter1uEv(ptr noundef nonnull align 8 dereferenceable(497) %3)
  %5 = getelementptr inbounds nuw %class.seq_util, ptr %4, i32 0, i32 6
  ret ptr %5
}

; Function Attrs: inlinehint mustprogress uwtable
define internal noundef ptr @"_ZZN12seq_rewriter24mk_regex_union_normalizeEP4exprS1_ENK3$_1clES1_S1_"(ptr noundef nonnull align 8 dereferenceable(8) %0, ptr noundef %1, ptr noundef %2) #8 align 2 {
  %4 = alloca ptr, align 8
  %5 = alloca ptr, align 8
  %6 = alloca ptr, align 8
  store ptr %0, ptr %4, align 8, !tbaa !383
  store ptr %1, ptr %5, align 8, !tbaa !8
  store ptr %2, ptr %6, align 8, !tbaa !8
  %7 = load ptr, ptr %4, align 8
  %8 = getelementptr inbounds nuw %class.anon.84, ptr %7, i32 0, i32 0
  %9 = load ptr, ptr %8, align 8, !tbaa !496
  %10 = load ptr, ptr %5, align 8, !tbaa !8
  %11 = load ptr, ptr %6, align 8, !tbaa !8
  %12 = call noundef zeroext i1 @_ZNK12seq_rewriter9is_subsetEP4exprS1_(ptr noundef nonnull align 8 dereferenceable(497) %9, ptr noundef %10, ptr noundef %11)
  br i1 %12, label %13, label %15

13:                                               ; preds = %3
  %14 = load ptr, ptr %6, align 8, !tbaa !8
  br label %28

15:                                               ; preds = %3
  %16 = load ptr, ptr %6, align 8, !tbaa !8
  %17 = load ptr, ptr %5, align 8, !tbaa !8
  %18 = call noundef zeroext i1 @_ZNK12seq_rewriter9is_subsetEP4exprS1_(ptr noundef nonnull align 8 dereferenceable(497) %9, ptr noundef %16, ptr noundef %17)
  br i1 %18, label %19, label %21

19:                                               ; preds = %15
  %20 = load ptr, ptr %5, align 8, !tbaa !8
  br label %26

21:                                               ; preds = %15
  %22 = call noundef nonnull align 8 dereferenceable(80) ptr @_ZN12seq_rewriter2reEv(ptr noundef nonnull align 8 dereferenceable(497) %9)
  %23 = load ptr, ptr %5, align 8, !tbaa !8
  %24 = load ptr, ptr %6, align 8, !tbaa !8
  %25 = call noundef ptr @_ZN8seq_util3rex8mk_unionEP4exprS2_(ptr noundef nonnull align 8 dereferenceable(80) %22, ptr noundef %23, ptr noundef %24)
  br label %26

26:                                               ; preds = %21, %19
  %27 = phi ptr [ %20, %19 ], [ %25, %21 ]
  br label %28

28:                                               ; preds = %26, %13
  %29 = phi ptr [ %14, %13 ], [ %27, %26 ]
  ret ptr %29
}

; Function Attrs: mustprogress nounwind uwtable
define linkonce_odr hidden noundef ptr @_ZNKSt9_Any_data9_M_accessEv(ptr noundef nonnull align 8 dereferenceable(16) %0) #6 comdat align 2 {
  %2 = alloca ptr, align 8
  store ptr %0, ptr %2, align 8, !tbaa !1230
  %3 = load ptr, ptr %2, align 8
  %4 = getelementptr inbounds [16 x i8], ptr %3, i64 0, i64 0
  ret ptr %4
}

; Function Attrs: mustprogress uwtable
define internal noundef ptr @"_ZSt13__invoke_implIP4exprRZN12seq_rewriter24mk_regex_union_normalizeES1_S1_E3$_1JS1_S1_EET_St14__invoke_otherOT0_DpOT1_"(ptr noundef nonnull align 8 dereferenceable(8) %0, ptr noundef nonnull align 8 dereferenceable(8) %1, ptr noundef nonnull align 8 dereferenceable(8) %2) #4 {
  %4 = alloca ptr, align 8
  %5 = alloca ptr, align 8
  %6 = alloca ptr, align 8
  store ptr %0, ptr %4, align 8, !tbaa !383
  store ptr %1, ptr %5, align 8, !tbaa !233
  store ptr %2, ptr %6, align 8, !tbaa !233
  %7 = load ptr, ptr %4, align 8, !tbaa !383
  %8 = load ptr, ptr %5, align 8, !tbaa !233
  %9 = load ptr, ptr %8, align 8, !tbaa !8
  %10 = load ptr, ptr %6, align 8, !tbaa !233
  %11 = load ptr, ptr %10, align 8, !tbaa !8
  %12 = call noundef ptr @"_ZZN12seq_rewriter24mk_regex_union_normalizeEP4exprS1_ENK3$_1clES1_S1_"(ptr noundef nonnull align 8 dereferenceable(8) %7, ptr noundef %9, ptr noundef %11)
  ret ptr %12
}

; Function Attrs: mustprogress nounwind uwtable
define internal noundef nonnull align 8 dereferenceable(8) ptr @"_ZNKSt9_Any_data9_M_accessIZN12seq_rewriter24mk_regex_union_normalizeEP4exprS3_E3$_1EERKT_v"(ptr noundef nonnull align 8 dereferenceable(16) %0) #6 align 2 {
  %2 = alloca ptr, align 8
  store ptr %0, ptr %2, align 8, !tbaa !1230
  %3 = load ptr, ptr %2, align 8
  %4 = call noundef ptr @_ZNKSt9_Any_data9_M_accessEv(ptr noundef nonnull align 8 dereferenceable(16) %3) #3
  ret ptr %4
}

; Function Attrs: mustprogress uwtable
define internal noundef ptr @"_ZSt10__invoke_rIP4exprRZN12seq_rewriter24mk_regex_union_normalizeES1_S1_E3$_1JS1_S1_EENSt9enable_ifIX16is_invocable_r_vIT_T0_DpT1_EES6_E4typeEOS7_DpOS8_"(ptr noundef nonnull align 8 dereferenceable(8) %0, ptr noundef nonnull align 8 dereferenceable(8) %1, ptr noundef nonnull align 8 dereferenceable(8) %2) #4 {
  %4 = alloca ptr, align 8
  %5 = alloca ptr, align 8
  %6 = alloca ptr, align 8
  store ptr %0, ptr %4, align 8, !tbaa !383
  store ptr %1, ptr %5, align 8, !tbaa !233
  store ptr %2, ptr %6, align 8, !tbaa !233
  %7 = load ptr, ptr %4, align 8, !tbaa !383
  %8 = load ptr, ptr %5, align 8, !tbaa !233
  %9 = load ptr, ptr %6, align 8, !tbaa !233
  %10 = call noundef ptr @"_ZSt13__invoke_implIP4exprRZN12seq_rewriter24mk_regex_union_normalizeES1_S1_E3$_1JS1_S1_EET_St14__invoke_otherOT0_DpOT1_"(ptr noundef nonnull align 8 dereferenceable(8) %7, ptr noundef nonnull align 8 dereferenceable(8) %8, ptr noundef nonnull align 8 dereferenceable(8) %9)
  ret ptr %10
}

; Function Attrs: mustprogress nounwind uwtable
define internal noundef ptr @"_ZNSt14_Function_base13_Base_managerIZN12seq_rewriter24mk_regex_union_normalizeEP4exprS3_E3$_1E14_M_get_pointerERKSt9_Any_data"(ptr noundef nonnull align 8 dereferenceable(16) %0) #6 align 2 {
  %2 = alloca ptr, align 8
  %3 = alloca ptr, align 8
  store ptr %0, ptr %2, align 8, !tbaa !1230
  call void @llvm.lifetime.start.p0(i64 8, ptr %3) #3
  %4 = load ptr, ptr %2, align 8, !tbaa !1230
  %5 = call noundef nonnull align 8 dereferenceable(8) ptr @"_ZNKSt9_Any_data9_M_accessIZN12seq_rewriter24mk_regex_union_normalizeEP4exprS3_E3$_1EERKT_v"(ptr noundef nonnull align 8 dereferenceable(16) %4) #3
  store ptr %5, ptr %3, align 8, !tbaa !383
  %6 = load ptr, ptr %3, align 8, !tbaa !383
  call void @llvm.lifetime.end.p0(i64 8, ptr %3) #3
  ret ptr %6
}

; Function Attrs: mustprogress uwtable
define internal noundef ptr @"_ZNSt17_Function_handlerIFP4exprS1_S1_EZN12seq_rewriter24mk_regex_union_normalizeES1_S1_E3$_1E9_M_invokeERKSt9_Any_dataOS1_S9_"(ptr noundef nonnull align 8 dereferenceable(16) %0, ptr noundef nonnull align 8 dereferenceable(8) %1, ptr noundef nonnull align 8 dereferenceable(8) %2) #4 align 2 {
  %4 = alloca ptr, align 8
  %5 = alloca ptr, align 8
  %6 = alloca ptr, align 8
  store ptr %0, ptr %4, align 8, !tbaa !1230
  store ptr %1, ptr %5, align 8, !tbaa !233
  store ptr %2, ptr %6, align 8, !tbaa !233
  %7 = load ptr, ptr %4, align 8, !tbaa !1230
  %8 = call noundef ptr @"_ZNSt14_Function_base13_Base_managerIZN12seq_rewriter24mk_regex_union_normalizeEP4exprS3_E3$_1E14_M_get_pointerERKSt9_Any_data"(ptr noundef nonnull align 8 dereferenceable(16) %7) #3
  %9 = load ptr, ptr %5, align 8, !tbaa !233
  %10 = load ptr, ptr %6, align 8, !tbaa !233
  %11 = call noundef ptr @"_ZSt10__invoke_rIP4exprRZN12seq_rewriter24mk_regex_union_normalizeES1_S1_E3$_1JS1_S1_EENSt9enable_ifIX16is_invocable_r_vIT_T0_DpT1_EES6_E4typeEOS7_DpOS8_"(ptr noundef nonnull align 8 dereferenceable(8) %8, ptr noundef nonnull align 8 dereferenceable(8) %9, ptr noundef nonnull align 8 dereferenceable(8) %10)
  ret ptr %11
}