; Function Attrs: mustprogress uwtable
define internal noundef ptr @"_ZNSt17_Function_handlerIFP4exprS1_S1_EZN12seq_rewriter24mk_regex_union_normalizeES1_S1_E3$_1E9_M_invokeERKSt9_Any_dataOS1_S9_"(ptr noundef nonnull readonly align 8 captures(none) dereferenceable(16) %0, ptr noundef nonnull readonly align 8 captures(none) dereferenceable(8) %1, ptr noundef nonnull readonly align 8 captures(none) dereferenceable(8) %2) #3 align 2 {
  %.val = load ptr, ptr %0, align 8, !tbaa !1019
  %.val3 = load ptr, ptr %1, align 8, !tbaa !3
  %.val4 = load ptr, ptr %2, align 8, !tbaa !3
  %4 = tail call noundef zeroext i1 @_ZNK12seq_rewriter9is_subsetEP4exprS1_(ptr noundef nonnull align 8 dereferenceable(497) %.val, ptr noundef %.val3, ptr noundef %.val4)
  br i1 %4, label %"_ZSt10__invoke_rIP4exprRZN12seq_rewriter24mk_regex_union_normalizeES1_S1_E3$_1JS1_S1_EENSt9enable_ifIX16is_invocable_r_vIT_T0_DpT1_EES6_E4typeEOS7_DpOS8_.exit", label %5

5:                                                ; preds = %3
  %6 = tail call noundef zeroext i1 @_ZNK12seq_rewriter9is_subsetEP4exprS1_(ptr noundef nonnull align 8 dereferenceable(497) %.val, ptr noundef %.val4, ptr noundef %.val3)
  br i1 %6, label %"_ZSt10__invoke_rIP4exprRZN12seq_rewriter24mk_regex_union_normalizeES1_S1_E3$_1JS1_S1_EENSt9enable_ifIX16is_invocable_r_vIT_T0_DpT1_EES6_E4typeEOS7_DpOS8_.exit", label %7

7:                                                ; preds = %5
  %8 = getelementptr inbounds nuw i8, ptr %.val, i64 64
  %9 = load ptr, ptr %8, align 8, !tbaa !327
  %10 = getelementptr inbounds nuw i8, ptr %.val, i64 72
  %11 = load i32, ptr %10, align 8, !tbaa !87
  %12 = tail call noundef ptr @_ZN11ast_manager6mk_appEiiP4exprS1_(ptr noundef nonnull align 8 dereferenceable(976) %9, i32 noundef %11, i32 noundef 29, ptr noundef %.val3, ptr noundef %.val4)
  br label %"_ZSt10__invoke_rIP4exprRZN12seq_rewriter24mk_regex_union_normalizeES1_S1_E3$_1JS1_S1_EENSt9enable_ifIX16is_invocable_r_vIT_T0_DpT1_EES6_E4typeEOS7_DpOS8_.exit"

"_ZSt10__invoke_rIP4exprRZN12seq_rewriter24mk_regex_union_normalizeES1_S1_E3$_1JS1_S1_EENSt9enable_ifIX16is_invocable_r_vIT_T0_DpT1_EES6_E4typeEOS7_DpOS8_.exit": ; preds = %3, %5, %7
  %13 = phi ptr [ %12, %7 ], [ %.val4, %3 ], [ %.val3, %5 ]
  ret ptr %13
}